target datalayout = "e-m:e-p270:32:32-p271:32:32-p272:64:64-i64:64-i128:128-f80:128-n8:16:32:64-S128"
target triple = "x86_64-pc-linux-gnu"

@.str.3 = private unnamed_addr constant [2 x i8] c"\0A\00", align 1
@.str.4 = private unnamed_addr constant [37 x i8] c"    ice40_dsp [options] [selection]\0A\00", align 1
@.str.5 = private unnamed_addr constant [80 x i8] c"Map multipliers ($mul/SB_MAC16) and multiply-accumulate ($mul/SB_MAC16 + $add)\0A\00", align 1
@.str.6 = private unnamed_addr constant [33 x i8] c"cells into iCE40 DSP resources.\0A\00", align 1
@.str.7 = private unnamed_addr constant [80 x i8] c"Currently, only the 16x16 multiply mode is supported and not the 2 x 8x8 mode.\0A\00", align 1
@.str.8 = private unnamed_addr constant [76 x i8] c"Pack input registers (A, B, {C,D}; with optional hold), pipeline registers\0A\00", align 1
@.str.9 = private unnamed_addr constant [81 x i8] c"({F,J,K,G}, H), output registers (O -- full 32-bits or lower 16-bits only; with\0A\00", align 1
@.str.10 = private unnamed_addr constant [65 x i8] c"optional hold), and post-adder into into the SB_MAC16 resource.\0A\00", align 1
@.str.11 = private unnamed_addr constant [80 x i8] c"Multiply-accumulate operations using the post-adder with feedback on the {C,D}\0A\00", align 1
@.str.12 = private unnamed_addr constant [73 x i8] c"input will be folded into the DSP. In this scenario only, resetting the\0A\00", align 1
@.str.13 = private unnamed_addr constant [79 x i8] c"the accumulator to an arbitrary value can be inferred to use the {C,D} input.\0A\00", align 1

; Function Attrs: mustprogress uwtable
define internal void @_ZN12_GLOBAL__N_112Ice40DspPass4helpEv(ptr noundef nonnull align 8 dereferenceable(104) %0) unnamed_addr #4 align 2 {
  %2 = alloca ptr, align 8
  store ptr %0, ptr %2, align 8
  call void (ptr, ...) @_ZN5Yosys3logEPKcz(ptr noundef @.str.3)
  call void (ptr, ...) @_ZN5Yosys3logEPKcz(ptr noundef @.str.4)
  call void (ptr, ...) @_ZN5Yosys3logEPKcz(ptr noundef @.str.3)
  call void (ptr, ...) @_ZN5Yosys3logEPKcz(ptr noundef @.str.5)
  call void (ptr, ...) @_ZN5Yosys3logEPKcz(ptr noundef @.str.6)
  call void (ptr, ...) @_ZN5Yosys3logEPKcz(ptr noundef @.str.7)
  call void (ptr, ...) @_ZN5Yosys3logEPKcz(ptr noundef @.str.3)
  call void (ptr, ...) @_ZN5Yosys3logEPKcz(ptr noundef @.str.8)
  call void (ptr, ...) @_ZN5Yosys3logEPKcz(ptr noundef @.str.9)
  call void (ptr, ...) @_ZN5Yosys3logEPKcz(ptr noundef @.str.10)
  call void (ptr, ...) @_ZN5Yosys3logEPKcz(ptr noundef @.str.3)
  call void (ptr, ...) @_ZN5Yosys3logEPKcz(ptr noundef @.str.11)
  call void (ptr, ...) @_ZN5Yosys3logEPKcz(ptr noundef @.str.12)
  call void (ptr, ...) @_ZN5Yosys3logEPKcz(ptr noundef @.str.13)
  call void (ptr, ...) @_ZN5Yosys3logEPKcz(ptr noundef @.str.3)
  ret void
}